target datalayout = "e-m:e-p270:32:32-p271:32:32-p272:64:64-i64:64-i128:128-f80:128-n8:16:32:64-S128"
target triple = "x86_64-pc-linux-gnu"

%struct.ObjectAddress = type { i32, i32, i32 }
%struct.nameData = type { [64 x i8] }
%struct.HeapTupleData = type { i32, %struct.ItemPointerData, i32, ptr }
%struct.ItemPointerData = type { %struct.BlockIdData, i16 }
%struct.BlockIdData = type { i16, i16 }
%struct.FormData_pg_operator = type { i32, %struct.nameData, i32, i32, i8, i8, i8, i32, i32, i32, i32, i32, i32, i32, i32 }
%struct.HeapTupleHeaderData = type { %union.anon, %struct.ItemPointerData, i16, i16, i8, [0 x i8] }
%union.anon = type { %struct.HeapTupleFields }
%struct.HeapTupleFields = type { i32, i32, %union.anon.0 }
%union.anon.0 = type { i32 }

; Function Attrs: inlinehint nounwind uwtable
define internal ptr @GETSTRUCT(ptr noundef %0) #4 {
  %2 = alloca ptr, align 8
  store ptr %0, ptr %2, align 8
  %3 = load ptr, ptr %2, align 8
  %4 = getelementptr inbounds nuw %struct.HeapTupleData, ptr %3, i32 0, i32 3
  %5 = load ptr, ptr %4, align 8
  %6 = load ptr, ptr %2, align 8
  %7 = getelementptr inbounds nuw %struct.HeapTupleData, ptr %6, i32 0, i32 3
  %8 = load ptr, ptr %7, align 8
  %9 = getelementptr inbounds nuw %struct.HeapTupleHeaderData, ptr %8, i32 0, i32 4
  %10 = load i8, ptr %9, align 2
  %11 = zext i8 %10 to i32
  %12 = sext i32 %11 to i64
  %13 = getelementptr inbounds i8, ptr %5, i64 %12
  ret ptr %13
}

; Function Attrs: nounwind uwtable
define dso_local { i64, i32 } @makeOperatorDependencies(ptr noundef %0, i1 noundef zeroext %1, i1 noundef zeroext %2) #0 {
  %4 = alloca %struct.ObjectAddress, align 4
  %5 = alloca ptr, align 8
  %6 = alloca i8, align 1
  %7 = alloca i8, align 1
  %8 = alloca ptr, align 8
  %9 = alloca %struct.ObjectAddress, align 4
  %10 = alloca ptr, align 8
  %11 = alloca { i64, i32 }, align 8
  store ptr %0, ptr %5, align 8
  %12 = zext i1 %1 to i8
  store i8 %12, ptr %6, align 1
  %13 = zext i1 %2 to i8
  store i8 %13, ptr %7, align 1
  call void @llvm.lifetime.start.p0(i64 8, ptr %8) #7
  %14 = load ptr, ptr %5, align 8
  %15 = call ptr @GETSTRUCT(ptr noundef %14)
  store ptr %15, ptr %8, align 8
  call void @llvm.lifetime.start.p0(i64 12, ptr %9) #7
  call void @llvm.lifetime.start.p0(i64 8, ptr %10) #7
  br label %16

16:                                               ; preds = %3
  %17 = getelementptr inbounds nuw %struct.ObjectAddress, ptr %4, i32 0, i32 0
  store i32 2617, ptr %17, align 4
  %18 = load ptr, ptr %8, align 8
  %19 = getelementptr inbounds nuw %struct.FormData_pg_operator, ptr %18, i32 0, i32 0
  %20 = load i32, ptr %19, align 4
  %21 = getelementptr inbounds nuw %struct.ObjectAddress, ptr %4, i32 0, i32 1
  store i32 %20, ptr %21, align 4
  %22 = getelementptr inbounds nuw %struct.ObjectAddress, ptr %4, i32 0, i32 2
  store i32 0, ptr %22, align 4
  br label %23

23:                                               ; preds = %16
  br label %24

24:                                               ; preds = %23
  %25 = load i8, ptr %7, align 1, !range !4, !noundef !5
  %26 = trunc i8 %25 to i1
  br i1 %26, label %27, label %37

27:                                               ; preds = %24
  %28 = getelementptr inbounds nuw %struct.ObjectAddress, ptr %4, i32 0, i32 0
  %29 = load i32, ptr %28, align 4
  %30 = getelementptr inbounds nuw %struct.ObjectAddress, ptr %4, i32 0, i32 1
  %31 = load i32, ptr %30, align 4
  %32 = call i64 @deleteDependencyRecordsFor(i32 noundef %29, i32 noundef %31, i1 noundef zeroext true)
  %33 = getelementptr inbounds nuw %struct.ObjectAddress, ptr %4, i32 0, i32 0
  %34 = load i32, ptr %33, align 4
  %35 = getelementptr inbounds nuw %struct.ObjectAddress, ptr %4, i32 0, i32 1
  %36 = load i32, ptr %35, align 4
  call void @deleteSharedDependencyRecordsFor(i32 noundef %34, i32 noundef %36, i32 noundef 0)
  br label %37

37:                                               ; preds = %27, %24
  %38 = call ptr @new_object_addresses()
  store ptr %38, ptr %10, align 8
  %39 = load ptr, ptr %8, align 8
  %40 = getelementptr inbounds nuw %struct.FormData_pg_operator, ptr %39, i32 0, i32 2
  %41 = load i32, ptr %40, align 4
  %42 = icmp ne i32 %41, 0
  br i1 %42, label %43, label %54

43:                                               ; preds = %37
  br label %44

44:                                               ; preds = %43
  %45 = getelementptr inbounds nuw %struct.ObjectAddress, ptr %9, i32 0, i32 0
  store i32 2615, ptr %45, align 4
  %46 = load ptr, ptr %8, align 8
  %47 = getelementptr inbounds nuw %struct.FormData_pg_operator, ptr %46, i32 0, i32 2
  %48 = load i32, ptr %47, align 4
  %49 = getelementptr inbounds nuw %struct.ObjectAddress, ptr %9, i32 0, i32 1
  store i32 %48, ptr %49, align 4
  %50 = getelementptr inbounds nuw %struct.ObjectAddress, ptr %9, i32 0, i32 2
  store i32 0, ptr %50, align 4
  br label %51

51:                                               ; preds = %44
  br label %52

52:                                               ; preds = %51
  %53 = load ptr, ptr %10, align 8
  call void @add_exact_object_address(ptr noundef %9, ptr noundef %53)
  br label %54

54:                                               ; preds = %52, %37
  %55 = load ptr, ptr %8, align 8
  %56 = getelementptr inbounds nuw %struct.FormData_pg_operator, ptr %55, i32 0, i32 7
  %57 = load i32, ptr %56, align 4
  %58 = icmp ne i32 %57, 0
  br i1 %58, label %59, label %70

59:                                               ; preds = %54
  br label %60

60:                                               ; preds = %59
  %61 = getelementptr inbounds nuw %struct.ObjectAddress, ptr %9, i32 0, i32 0
  store i32 1247, ptr %61, align 4
  %62 = load ptr, ptr %8, align 8
  %63 = getelementptr inbounds nuw %struct.FormData_pg_operator, ptr %62, i32 0, i32 7
  %64 = load i32, ptr %63, align 4
  %65 = getelementptr inbounds nuw %struct.ObjectAddress, ptr %9, i32 0, i32 1
  store i32 %64, ptr %65, align 4
  %66 = getelementptr inbounds nuw %struct.ObjectAddress, ptr %9, i32 0, i32 2
  store i32 0, ptr %66, align 4
  br label %67

67:                                               ; preds = %60
  br label %68

68:                                               ; preds = %67
  %69 = load ptr, ptr %10, align 8
  call void @add_exact_object_address(ptr noundef %9, ptr noundef %69)
  br label %70

70:                                               ; preds = %68, %54
  %71 = load ptr, ptr %8, align 8
  %72 = getelementptr inbounds nuw %struct.FormData_pg_operator, ptr %71, i32 0, i32 8
  %73 = load i32, ptr %72, align 4
  %74 = icmp ne i32 %73, 0
  br i1 %74, label %75, label %86

75:                                               ; preds = %70
  br label %76

76:                                               ; preds = %75
  %77 = getelementptr inbounds nuw %struct.ObjectAddress, ptr %9, i32 0, i32 0
  store i32 1247, ptr %77, align 4
  %78 = load ptr, ptr %8, align 8
  %79 = getelementptr inbounds nuw %struct.FormData_pg_operator, ptr %78, i32 0, i32 8
  %80 = load i32, ptr %79, align 4
  %81 = getelementptr inbounds nuw %struct.ObjectAddress, ptr %9, i32 0, i32 1
  store i32 %80, ptr %81, align 4
  %82 = getelementptr inbounds nuw %struct.ObjectAddress, ptr %9, i32 0, i32 2
  store i32 0, ptr %82, align 4
  br label %83

83:                                               ; preds = %76
  br label %84

84:                                               ; preds = %83
  %85 = load ptr, ptr %10, align 8
  call void @add_exact_object_address(ptr noundef %9, ptr noundef %85)
  br label %86

86:                                               ; preds = %84, %70
  %87 = load ptr, ptr %8, align 8
  %88 = getelementptr inbounds nuw %struct.FormData_pg_operator, ptr %87, i32 0, i32 9
  %89 = load i32, ptr %88, align 4
  %90 = icmp ne i32 %89, 0
  br i1 %90, label %91, label %102

91:                                               ; preds = %86
  br label %92

92:                                               ; preds = %91
  %93 = getelementptr inbounds nuw %struct.ObjectAddress, ptr %9, i32 0, i32 0
  store i32 1247, ptr %93, align 4
  %94 = load ptr, ptr %8, align 8
  %95 = getelementptr inbounds nuw %struct.FormData_pg_operator, ptr %94, i32 0, i32 9
  %96 = load i32, ptr %95, align 4
  %97 = getelementptr inbounds nuw %struct.ObjectAddress, ptr %9, i32 0, i32 1
  store i32 %96, ptr %97, align 4
  %98 = getelementptr inbounds nuw %struct.ObjectAddress, ptr %9, i32 0, i32 2
  store i32 0, ptr %98, align 4
  br label %99

99:                                               ; preds = %92
  br label %100

100:                                              ; preds = %99
  %101 = load ptr, ptr %10, align 8
  call void @add_exact_object_address(ptr noundef %9, ptr noundef %101)
  br label %102

102:                                              ; preds = %100, %86
  %103 = load ptr, ptr %8, align 8
  %104 = getelementptr inbounds nuw %struct.FormData_pg_operator, ptr %103, i32 0, i32 12
  %105 = load i32, ptr %104, align 4
  %106 = icmp ne i32 %105, 0
  br i1 %106, label %107, label %118

107:                                              ; preds = %102
  br label %108

108:                                              ; preds = %107
  %109 = getelementptr inbounds nuw %struct.ObjectAddress, ptr %9, i32 0, i32 0
  store i32 1255, ptr %109, align 4
  %110 = load ptr, ptr %8, align 8
  %111 = getelementptr inbounds nuw %struct.FormData_pg_operator, ptr %110, i32 0, i32 12
  %112 = load i32, ptr %111, align 4
  %113 = getelementptr inbounds nuw %struct.ObjectAddress, ptr %9, i32 0, i32 1
  store i32 %112, ptr %113, align 4
  %114 = getelementptr inbounds nuw %struct.ObjectAddress, ptr %9, i32 0, i32 2
  store i32 0, ptr %114, align 4
  br label %115

115:                                              ; preds = %108
  br label %116

116:                                              ; preds = %115
  %117 = load ptr, ptr %10, align 8
  call void @add_exact_object_address(ptr noundef %9, ptr noundef %117)
  br label %118

118:                                              ; preds = %116, %102
  %119 = load ptr, ptr %8, align 8
  %120 = getelementptr inbounds nuw %struct.FormData_pg_operator, ptr %119, i32 0, i32 13
  %121 = load i32, ptr %120, align 4
  %122 = icmp ne i32 %121, 0
  br i1 %122, label %123, label %134

123:                                              ; preds = %118
  br label %124

124:                                              ; preds = %123
  %125 = getelementptr inbounds nuw %struct.ObjectAddress, ptr %9, i32 0, i32 0
  store i32 1255, ptr %125, align 4
  %126 = load ptr, ptr %8, align 8
  %127 = getelementptr inbounds nuw %struct.FormData_pg_operator, ptr %126, i32 0, i32 13
  %128 = load i32, ptr %127, align 4
  %129 = getelementptr inbounds nuw %struct.ObjectAddress, ptr %9, i32 0, i32 1
  store i32 %128, ptr %129, align 4
  %130 = getelementptr inbounds nuw %struct.ObjectAddress, ptr %9, i32 0, i32 2
  store i32 0, ptr %130, align 4
  br label %131

131:                                              ; preds = %124
  br label %132

132:                                              ; preds = %131
  %133 = load ptr, ptr %10, align 8
  call void @add_exact_object_address(ptr noundef %9, ptr noundef %133)
  br label %134

134:                                              ; preds = %132, %118
  %135 = load ptr, ptr %8, align 8
  %136 = getelementptr inbounds nuw %struct.FormData_pg_operator, ptr %135, i32 0, i32 14
  %137 = load i32, ptr %136, align 4
  %138 = icmp ne i32 %137, 0
  br i1 %138, label %139, label %150

139:                                              ; preds = %134
  br label %140

140:                                              ; preds = %139
  %141 = getelementptr inbounds nuw %struct.ObjectAddress, ptr %9, i32 0, i32 0
  store i32 1255, ptr %141, align 4
  %142 = load ptr, ptr %8, align 8
  %143 = getelementptr inbounds nuw %struct.FormData_pg_operator, ptr %142, i32 0, i32 14
  %144 = load i32, ptr %143, align 4
  %145 = getelementptr inbounds nuw %struct.ObjectAddress, ptr %9, i32 0, i32 1
  store i32 %144, ptr %145, align 4
  %146 = getelementptr inbounds nuw %struct.ObjectAddress, ptr %9, i32 0, i32 2
  store i32 0, ptr %146, align 4
  br label %147

147:                                              ; preds = %140
  br label %148

148:                                              ; preds = %147
  %149 = load ptr, ptr %10, align 8
  call void @add_exact_object_address(ptr noundef %9, ptr noundef %149)
  br label %150

150:                                              ; preds = %148, %134
  %151 = load ptr, ptr %10, align 8
  call void @record_object_address_dependencies(ptr noundef %4, ptr noundef %151, i32 noundef 110)
  %152 = load ptr, ptr %10, align 8
  call void @free_object_addresses(ptr noundef %152)
  %153 = load ptr, ptr %8, align 8
  %154 = getelementptr inbounds nuw %struct.FormData_pg_operator, ptr %153, i32 0, i32 0
  %155 = load i32, ptr %154, align 4
  %156 = load ptr, ptr %8, align 8
  %157 = getelementptr inbounds nuw %struct.FormData_pg_operator, ptr %156, i32 0, i32 3
  %158 = load i32, ptr %157, align 4
  call void @recordDependencyOnOwner(i32 noundef 2617, i32 noundef %155, i32 noundef %158)
  %159 = load i8, ptr %6, align 1, !range !4, !noundef !5
  %160 = trunc i8 %159 to i1
  br i1 %160, label %161, label %164

161:                                              ; preds = %150
  %162 = load i8, ptr %7, align 1, !range !4, !noundef !5
  %163 = trunc i8 %162 to i1
  call void @recordDependencyOnCurrentExtension(ptr noundef %4, i1 noundef zeroext %163)
  br label %164

164:                                              ; preds = %161, %150
  call void @llvm.lifetime.end.p0(i64 8, ptr %10) #7
  call void @llvm.lifetime.end.p0(i64 12, ptr %9) #7
  call void @llvm.lifetime.end.p0(i64 8, ptr %8) #7
  call void @llvm.memcpy.p0.p0.i64(ptr align 8 %11, ptr align 4 %4, i64 12, i1 false)
  %165 = load { i64, i32 }, ptr %11, align 8
  ret { i64, i32 } %165
}