; Function Attrs: nounwind uwtable
define dso_local { i64, i32 } @makeOperatorDependencies(ptr noundef readonly captures(none) %0, i1 noundef zeroext %1, i1 noundef zeroext %2) local_unnamed_addr #0 {
  %4 = alloca %struct.ObjectAddress, align 8
  %5 = alloca %struct.ObjectAddress, align 4
  %6 = getelementptr i8, ptr %0, i64 16
  %.val = load ptr, ptr %6, align 8
  %7 = getelementptr inbounds nuw i8, ptr %.val, i64 22
  %8 = load i8, ptr %7, align 2
  %9 = zext i8 %8 to i64
  %10 = getelementptr inbounds nuw i8, ptr %.val, i64 %9
  call void @llvm.lifetime.start.p0(i64 12, ptr nonnull %5) #9
  store i32 2617, ptr %4, align 8
  %11 = load i32, ptr %10, align 4
  %12 = getelementptr inbounds nuw i8, ptr %4, i64 4
  store i32 %11, ptr %12, align 4
  %13 = getelementptr inbounds nuw i8, ptr %4, i64 8
  store i32 0, ptr %13, align 8
  br i1 %2, label %14, label %16

14:                                               ; preds = %3
  %15 = tail call i64 @deleteDependencyRecordsFor(i32 noundef 2617, i32 noundef %11, i1 noundef zeroext true) #9
  tail call void @deleteSharedDependencyRecordsFor(i32 noundef 2617, i32 noundef %11, i32 noundef 0) #9
  br label %16

16:                                               ; preds = %14, %3
  %17 = tail call ptr @new_object_addresses() #9
  %18 = getelementptr inbounds nuw i8, ptr %10, i64 68
  %19 = load i32, ptr %18, align 4
  %.not = icmp eq i32 %19, 0
  br i1 %.not, label %23, label %20

20:                                               ; preds = %16
  store i32 2615, ptr %5, align 4
  %21 = getelementptr inbounds nuw i8, ptr %5, i64 4
  store i32 %19, ptr %21, align 4
  %22 = getelementptr inbounds nuw i8, ptr %5, i64 8
  store i32 0, ptr %22, align 4
  call void @add_exact_object_address(ptr noundef nonnull %5, ptr noundef %17) #9
  br label %23

23:                                               ; preds = %20, %16
  %24 = getelementptr inbounds nuw i8, ptr %10, i64 80
  %25 = load i32, ptr %24, align 4
  %.not29 = icmp eq i32 %25, 0
  br i1 %.not29, label %29, label %26

26:                                               ; preds = %23
  store i32 1247, ptr %5, align 4
  %27 = getelementptr inbounds nuw i8, ptr %5, i64 4
  store i32 %25, ptr %27, align 4
  %28 = getelementptr inbounds nuw i8, ptr %5, i64 8
  store i32 0, ptr %28, align 4
  call void @add_exact_object_address(ptr noundef nonnull %5, ptr noundef %17) #9
  br label %29

29:                                               ; preds = %26, %23
  %30 = getelementptr inbounds nuw i8, ptr %10, i64 84
  %31 = load i32, ptr %30, align 4
  %.not30 = icmp eq i32 %31, 0
  br i1 %.not30, label %35, label %32

32:                                               ; preds = %29
  store i32 1247, ptr %5, align 4
  %33 = getelementptr inbounds nuw i8, ptr %5, i64 4
  store i32 %31, ptr %33, align 4
  %34 = getelementptr inbounds nuw i8, ptr %5, i64 8
  store i32 0, ptr %34, align 4
  call void @add_exact_object_address(ptr noundef nonnull %5, ptr noundef %17) #9
  br label %35

35:                                               ; preds = %32, %29
  %36 = getelementptr inbounds nuw i8, ptr %10, i64 88
  %37 = load i32, ptr %36, align 4
  %.not31 = icmp eq i32 %37, 0
  br i1 %.not31, label %41, label %38

38:                                               ; preds = %35
  store i32 1247, ptr %5, align 4
  %39 = getelementptr inbounds nuw i8, ptr %5, i64 4
  store i32 %37, ptr %39, align 4
  %40 = getelementptr inbounds nuw i8, ptr %5, i64 8
  store i32 0, ptr %40, align 4
  call void @add_exact_object_address(ptr noundef nonnull %5, ptr noundef %17) #9
  br label %41

41:                                               ; preds = %38, %35
  %42 = getelementptr inbounds nuw i8, ptr %10, i64 100
  %43 = load i32, ptr %42, align 4
  %.not32 = icmp eq i32 %43, 0
  br i1 %.not32, label %47, label %44

44:                                               ; preds = %41
  store i32 1255, ptr %5, align 4
  %45 = getelementptr inbounds nuw i8, ptr %5, i64 4
  store i32 %43, ptr %45, align 4
  %46 = getelementptr inbounds nuw i8, ptr %5, i64 8
  store i32 0, ptr %46, align 4
  call void @add_exact_object_address(ptr noundef nonnull %5, ptr noundef %17) #9
  br label %47

47:                                               ; preds = %44, %41
  %48 = getelementptr inbounds nuw i8, ptr %10, i64 104
  %49 = load i32, ptr %48, align 4
  %.not33 = icmp eq i32 %49, 0
  br i1 %.not33, label %53, label %50

50:                                               ; preds = %47
  store i32 1255, ptr %5, align 4
  %51 = getelementptr inbounds nuw i8, ptr %5, i64 4
  store i32 %49, ptr %51, align 4
  %52 = getelementptr inbounds nuw i8, ptr %5, i64 8
  store i32 0, ptr %52, align 4
  call void @add_exact_object_address(ptr noundef nonnull %5, ptr noundef %17) #9
  br label %53

53:                                               ; preds = %50, %47
  %54 = getelementptr inbounds nuw i8, ptr %10, i64 108
  %55 = load i32, ptr %54, align 4
  %.not34 = icmp eq i32 %55, 0
  br i1 %.not34, label %59, label %56

56:                                               ; preds = %53
  store i32 1255, ptr %5, align 4
  %57 = getelementptr inbounds nuw i8, ptr %5, i64 4
  store i32 %55, ptr %57, align 4
  %58 = getelementptr inbounds nuw i8, ptr %5, i64 8
  store i32 0, ptr %58, align 4
  call void @add_exact_object_address(ptr noundef nonnull %5, ptr noundef %17) #9
  br label %59

59:                                               ; preds = %56, %53
  call void @record_object_address_dependencies(ptr noundef nonnull %4, ptr noundef %17, i32 noundef 110) #9
  call void @free_object_addresses(ptr noundef %17) #9
  %60 = load i32, ptr %10, align 4
  %61 = getelementptr inbounds nuw i8, ptr %10, i64 72
  %62 = load i32, ptr %61, align 4
  call void @recordDependencyOnOwner(i32 noundef 2617, i32 noundef %60, i32 noundef %62) #9
  br i1 %1, label %63, label %64

63:                                               ; preds = %59
  call void @recordDependencyOnCurrentExtension(ptr noundef nonnull %4, i1 noundef zeroext %2) #9
  br label %64

64:                                               ; preds = %63, %59
  call void @llvm.lifetime.end.p0(i64 12, ptr nonnull %5) #9
  %.sroa.0.0.copyload = load i64, ptr %4, align 8
  %.sroa.2.0.copyload = load i32, ptr %13, align 8
  %.fca.0.insert = insertvalue { i64, i32 } poison, i64 %.sroa.0.0.copyload, 0
  %.fca.1.insert = insertvalue { i64, i32 } %.fca.0.insert, i32 %.sroa.2.0.copyload, 1
  ret { i64, i32 } %.fca.1.insert
}